source_filename = "test"
target datalayout = "e-m:e-p:64:64-i64:64-f80:128-n8:16:32:64-S128"

@off_238DE8 = global i64 180195
@global_var_2bfff.2 = constant [48 x i8] c"Cannot read input.Input must be 32 characters.\0A\00"
@off_238DF8 = global i64 180241
@off_238E08 = global i64 180182
@off_238E20 = global i64 180182
@off_238E38 = global i64 180182
@off_238E68 = global i64 180182
@0 = external global i32

declare i8* @memset(i8*, i32, i64) local_unnamed_addr

declare i64 @_ZN9just_rust11print_state17hd532a95cefac37fdE() local_unnamed_addr

define i64 @_ZN9just_rust4main17h2803f2b95c0faddaE(i32 %a1, i32 %a2, i32 %a3, i32 %a4, i32 %a5, i32 %a6, i32 %a7, i32 %a8, i32 %a9, i32 %a10, i32 %a11, i32 %a12, i32 %a13, i32 %a14, i32 %a15, i32 %a16, i32 %a17, i32 %a18, i32 %a19, i32 %a20, i32 %a21, i32 %a22, i32 %a23, i32 %a24, i32 %a25, i32 %a26, i32 %a27, i32 %a28, i32 %a29, i32 %a30, i32 %a31, i32 %a32, i32 %a33, i32 %a34, i32 %a35, i32 %a36, i32 %a37, i32 %a38, i32 %a39, i32 %a40, i32 %a41, i32 %a42, i32 %a43, i32 %a44, i32 %a45, i32 %a46, i32 %a47, i32 %a48, i32 %a49, i32 %a50, i32 %a51, i32 %a52, i32 %a53, i32 %a54, i32 %a55, i32 %a56, i32 %a57, i32 %a58, i32 %a59, i32 %a60, i32 %a61, i32 %a62, i32 %a63, i32 %a64, i32 %a65, i32 %a66, i64 %a67, i64 %a68, i64 %a69, i32 %a70, i32 %a71, i32 %a72, i32 %a73, i32 %a74, i32 %a75, i8 %a76, i32 %a77, i64 %a78, i64 %a79, i64 %a80, i32 %a81, i32 %a82, i32 %a83, i32 %a84, i32 %a85, i32 %a86, i32 %a87, i32 %a88, i32 %a89, i32 %a90, i32 %a91, i32 %a92, i32 %a93, i32 %a94, i32 %a95, i32 %a96, i32 %a97, i32 %a98, i32 %a99, i32 %a100, i32 %a101, i32 %a102, i32 %a103, i32 %a104, i32 %a105, i32 %a106, i32 %a107, i32 %a108, i32 %a109, i32 %a110, i32 %a111, i32 %a112, i32 %a113, i32 %a114, i32 %a115, i32 %a116, i32 %a117, i32 %a118, i32 %a119, i32 %a120, i32 %a121, i32 %a122, i32 %a123, i32 %a124, i32 %a125, i32 %a126, i32 %a127, i32 %a128, i32 %a129, i32 %a130, i32 %a131, i32 %a132, i32 %a133, i32 %a134, i32 %a135, i32 %a136, i32 %a137, i32 %a138, i32 %a139, i32 %a140, i32 %a141, i32 %a142, i32 %a143, i32 %a144, i32 %a145, i32 %a146, i32 %a147, i32 %a148, i32 %a149, i32 %a150, i32 %a151, i32 %a152, i32 %a153, i32 %a154, i32 %a155, i32 %a156, i32 %a157, i32 %a158, i32 %a159, i32 %a160, i32 %a161, i32 %a162, i32 %a163, i32 %a164, i32 %a165, i32 %a166, i64 %a167, i32 %a168) local_unnamed_addr {
dec_label_pc_5290:
  %r8.global-to-local = alloca i64, align 8
  %rcx.global-to-local = alloca i64, align 8
  %rdx.global-to-local = alloca i64, align 8
  %rsi.global-to-local = alloca i64, align 8
  %tmp318 = sext i32 %a5 to i64
  store i64 %tmp318, i64* %r8.global-to-local, align 8
  %tmp319 = sext i32 %a4 to i64
  store i64 %tmp319, i64* %rcx.global-to-local, align 8
  %tmp320 = sext i32 %a3 to i64
  store i64 %tmp320, i64* %rdx.global-to-local, align 8
  %tmp321 = sext i32 %a2 to i64
  store i64 %tmp321, i64* %rsi.global-to-local, align 8
  %stack_var_-120 = alloca i64, align 8
  %stack_var_-138 = alloca i16, align 2
  %tmp365 = call i128 @__decompiler_undefined_function_0()
  %tmp366 = call i128 @__decompiler_undefined_function_0()
  %tmp367 = call i128 @__decompiler_undefined_function_0()
  %stack_var_-184 = alloca i64, align 8
  %stack_var_-232 = alloca i64, align 8
  %stack_var_-208 = alloca i64, align 8
  %tmp386 = call i64 @__decompiler_undefined_function_2()
  %tmp387 = call i64 @__decompiler_undefined_function_2()
  %stack_var_-240 = alloca i64, align 8
  %stack_var_-304 = alloca i128, align 8
  %tmp395 = call i128 @__decompiler_undefined_function_0()
  %stack_var_-416 = alloca i64, align 8
  %stack_var_-392 = alloca i64, align 8
  %stack_var_-440 = alloca i64, align 8
  store i64 0, i64* %r8.global-to-local, align 8
  store i64 ptrtoint (i64* @off_238DE8 to i64), i64* %rsi.global-to-local, align 8
  store i64 1, i64* %rdx.global-to-local, align 8
  store i64 8, i64* %rcx.global-to-local, align 8
  %v0_52b8 = call i64 @_ZN4core3fmt9Arguments6new_v117habe1453c04c6104cE()
  call void @_ZN3std2io5stdio6_print17ha21135370f774d93E()
  %v2_52dc = ptrtoint i64* %stack_var_-440 to i64
  %v0_52e4 = call i64 @_ZN5alloc6string6String3new17h980c23501ad67776E()
  call void @_ZN3std2io5stdio5stdin17had800504caeed016E()
  store i64 ptrtoint (i32* @0 to i64), i64* %stack_var_-392, align 8
  store i64 55872, i64* %rcx.global-to-local, align 8
  %v2_5313 = ptrtoint i64* %stack_var_-416 to i64
  %v2_531b = ptrtoint i64* %stack_var_-392 to i64
  store i64 %v2_531b, i64* %rsi.global-to-local, align 8
  store i64 %v2_52dc, i64* %rdx.global-to-local, align 8
  call void @_ZN3std2io5stdio5Stdin9read_line17hc21f46249bf233abE()
  store i64 ptrtoint ([48 x i8]* @global_var_2bfff.2 to i64), i64* %rsi.global-to-local, align 8
  %v3_5345 = trunc i64 %v2_5313 to i32
  store i64 18, i64* %rdx.global-to-local, align 8
  %v12_5352 = load i64, i64* %r8.global-to-local, align 8
  %v13_5352 = trunc i64 %v12_5352 to i32
  %v27_5352 = call i64 @"_ZN4core6result19Result$LT$T$C$E$GT$6expect17hfa3ac7a45b0a87edE"(i32 %v3_5345, i32 ptrtoint ([48 x i8]* @global_var_2bfff.2 to i32), i32 18, i32 55872, i32 %v13_5352, i32 %a6, i32 ptrtoint (i32* @0 to i32), i32 ptrtoint (i32* @0 to i32), i64 ptrtoint (i32* @0 to i64), i8 ptrtoint (i32* @0 to i8), i32 ptrtoint (i32* @0 to i32), i32 ptrtoint (i32* @0 to i32), i32 ptrtoint (i32* @0 to i32), i32 ptrtoint (i32* @0 to i32), i32 ptrtoint (i32* @0 to i32), i64 ptrtoint (i32* @0 to i64))
  %v0_5370 = call i64 @_ZN4core3ptr18real_drop_in_place17h8846cd2964247bd9E()
  %v0_537f = call i64 @"_ZN65_$LT$alloc__string__String$u20$as$u20$core__ops__deref__Deref$GT$5deref17hb0a775d31e825c41E"()
  store i64 18, i64* %rsi.global-to-local, align 8
  call void @"_ZN4core3str21_$LT$impl$u20$str$GT$4trim17h2ccbb6090d1941e7E"()
  store i64 ptrtoint (i32* @0 to i64), i64* %rsi.global-to-local, align 8
  store i64 18, i64* %rdx.global-to-local, align 8
  %v0_53d9 = call i64 @"_ZN47_$LT$str$u20$as$u20$alloc__string__ToString$GT$9to_string17h5a0200081bca5a96E"()
  %v0_53e8 = call i64 @_ZN4core3ptr18real_drop_in_place17h91bf1bc63242b658E()
  %v6_583a = call i128 @__asm_movups(i128 %tmp395)
  %v1_5842 = call i64 @__asm_movaps(i128 %v6_583a)
  store i64 %v1_5842, i64* %stack_var_-440, align 8
  %v0_5852 = call i64 @_ZN5alloc6string6String3len17hb4ef81855ae3e8c9E()
  %sext.mask = and i64 %v0_5852, 4294967295
  %v12_5402 = icmp eq i64 %sext.mask, 32
  %v1_540b = icmp eq i1 %v12_5402, false
  br i1 %v1_540b, label %dec_label_pc_545f, label %dec_label_pc_58a2.preheader.thread

dec_label_pc_58a2.preheader.thread:               ; preds = %dec_label_pc_5290
  %v2_540d = ptrtoint i128* %stack_var_-304 to i64
  %tmp414 = bitcast i64* %stack_var_-240 to i8*
  store i64 64, i64* %rsi.global-to-local, align 8
  store i64 8, i64* %rdx.global-to-local, align 8
  %v7_542f = call i8* @memset(i8* %tmp414, i32 64, i64 8)
  %v1_543c = add i64 %v2_540d, 64
  store i64 %v1_543c, i64* %rcx.global-to-local, align 8
  br label %dec_label_pc_58bc.preheader

dec_label_pc_545f:                                ; preds = %dec_label_pc_5290
  store i64 ptrtoint (i64* @off_238DF8 to i64), i64* %rsi.global-to-local, align 8
  store i64 0, i64* %r8.global-to-local, align 8
  store i64 1, i64* %rdx.global-to-local, align 8
  store i64 8, i64* %rcx.global-to-local, align 8
  %v0_547d = call i64 @_ZN4core3fmt9Arguments6new_v117habe1453c04c6104cE()
  call void @_ZN3std2io5stdio6_print17ha21135370f774d93E()
  call void @_ZN3std7process4exit17h3da318d796a7fee3E()
  br label %dec_label_pc_58a2.preheader

dec_label_pc_5531:                                ; preds = %dec_label_pc_5661, %dec_label_pc_58dd
  %v7_5539 = phi i64 [ %v7_5539.pre, %dec_label_pc_58dd ], [ %v4_5687, %dec_label_pc_5661 ]
  %v5_5539 = phi i64 [ %v5_5539.pre, %dec_label_pc_58dd ], [ 0, %dec_label_pc_5661 ]
  %v3_5539 = load i64, i64* %rsi.global-to-local, align 8
  %v4_5539 = trunc i64 %v3_5539 to i32
  %v6_5539 = trunc i64 %v5_5539 to i32
  %v8_5539 = trunc i64 %v7_5539 to i32
  %v9_5539 = load i64, i64* %r8.global-to-local, align 8
  %v10_5539 = trunc i64 %v9_5539 to i32
  %v29_5539 = call i64 @"_ZN99_$LT$core__iter__adapters__Enumerate$LT$I$GT$$u20$as$u20$core__iter__traits__iterator__Iterator$GT$4next17h479490e5b884f92cE"(i32 %v3_5531, i32 %v4_5539, i32 %v6_5539, i32 %v8_5539, i32 %v10_5539, i32 %a6, i32 ptrtoint (i32* @0 to i32), i32 ptrtoint (i32* @0 to i32), i32 ptrtoint (i32* @0 to i32), i32 ptrtoint (i32* @0 to i32), i32 ptrtoint (i32* @0 to i32), i32 ptrtoint (i32* @0 to i32), i32 ptrtoint (i32* @0 to i32), i32 ptrtoint (i32* @0 to i32), i32 ptrtoint (i32* @0 to i32), i32 ptrtoint (i32* @0 to i32), i32 ptrtoint (i32* @0 to i32), i32 ptrtoint (i32* @0 to i32), i32 ptrtoint (i32* @0 to i32), i32 ptrtoint (i32* @0 to i32), i64 ptrtoint (i32* @0 to i64))
  %v0_553e = load i64, i64* %rdx.global-to-local, align 8
  store i64 %v0_553e, i64* %rcx.global-to-local, align 8
  %v1_5568 = trunc i64 %v0_553e to i32
  %v2_5568 = add i32 %v1_5568, -1114112
  %v10_5568 = icmp eq i32 %v2_5568, 0
  %v16_5568 = zext i32 %v2_5568 to i64
  store i64 %v16_5568, i64* %rdx.global-to-local, align 8
  %v1_556e = icmp eq i1 %v10_5568, false
  %v2_556e = zext i1 %v1_556e to i64
  %v3_556e = load i64, i64* %rsi.global-to-local, align 8
  %v4_556e = and i64 %v3_556e, -256
  %v5_556e = or i64 %v2_556e, %v4_556e
  store i64 %v5_556e, i64* %rsi.global-to-local, align 8
  store i64 %v5_556e, i64* %r8.global-to-local, align 8
  br i1 %v10_5568, label %dec_label_pc_557f, label %dec_label_pc_55d3

dec_label_pc_557f:                                ; preds = %dec_label_pc_5531
  %v3_557f = load i128, i128* %stack_var_-304, align 8
  %v6_557f = call i128 @__asm_movups(i128 %v3_557f)
  %v4_5587 = call i128 @__asm_movups(i128 %tmp367)
  %v4_558f = call i128 @__asm_movups(i128 %tmp366)
  %v4_5597 = call i128 @__asm_movups(i128 %tmp365)
  %v1_559f = call i64 @__asm_movaps(i128 %v4_5597)
  %v1_55a7 = call i64 @__asm_movaps(i128 %v4_558f)
  %v1_55af = call i64 @__asm_movaps(i128 %v4_5587)
  %v1_55b7 = call i64 @__asm_movaps(i128 %v6_557f)
  %v0_55c7 = call i64 @_ZN9just_rust11print_state17hd532a95cefac37fdE()
  %v0_57e8 = call i64 @_ZN4core3ptr18real_drop_in_place17h91bf1bc63242b658E()
  ret i64 %v0_57e8

dec_label_pc_55d3:                                ; preds = %dec_label_pc_5531
  %v3_55e2 = or i64 %v0_553e, %v29_5539
  %v1_55e4 = trunc i64 %v29_5539 to i8
  %v3_55e4 = udiv i8 %v1_55e4, 8
  %v9_55e4 = zext i8 %v3_55e4 to i64
  %v11_55e4 = and i64 %v3_55e2, -256
  %v12_55e4 = or i64 %v11_55e4, %v9_55e4
  store i64 %v12_55e4, i64* %rcx.global-to-local, align 8
  store i16 0, i16* %stack_var_-138, align 2
  store i64 %v2_55f1, i64* %rsi.global-to-local, align 8
  store i64 2, i64* %rdx.global-to-local, align 8
  %v0_5607 = call i64 @"_ZN4core4char7methods22_$LT$impl$u20$char$GT$11encode_utf817h737276376f8d9a93E"()
  store i64 8, i64* %rsi.global-to-local, align 8
  %v0_5636 = call i64 @"_ZN63_$LT$I$u20$as$u20$core__iter__traits__collect__IntoIterator$GT$9into_iter17hd72a1b6c997a55e9E"()
  %v0_563b = load i64, i64* %rdx.global-to-local, align 8
  store i64 %v0_5636, i64* %stack_var_-120, align 8
  %v2_5731 = and i8 %v3_55e4, 24
  %v3_5731 = icmp eq i8 %v2_5731, 0
  %v1_5735 = icmp eq i1 %v3_5731, false
  %v2_573c = urem i8 %v3_55e4, 8
  %v3_573c = icmp eq i8 %v2_573c, 0
  %v8_573c = zext i8 %v2_573c to i64
  %v3_5745 = icmp eq i1 %v1_5735, false
  %v1_574b = icmp eq i1 %v3_5745, false
  br label %dec_label_pc_5661

dec_label_pc_5661:                                ; preds = %dec_label_pc_5785, %dec_label_pc_55d3
  %v5_5669 = phi i64 [ %v5_5669.pre, %dec_label_pc_5785 ], [ %v0_563b, %dec_label_pc_55d3 ]
  %v3_5669 = load i64, i64* %rsi.global-to-local, align 8
  %v4_5669 = trunc i64 %v3_5669 to i32
  %v6_5669 = trunc i64 %v5_5669 to i32
  %v7_5669 = load i64, i64* %rcx.global-to-local, align 8
  %v8_5669 = trunc i64 %v7_5669 to i32
  %v9_5669 = load i64, i64* %r8.global-to-local, align 8
  %v10_5669 = trunc i64 %v9_5669 to i32
  %v24_5669 = call i64 @"_ZN4core4iter5range101_$LT$impl$u20$core__iter__traits__iterator__Iterator$u20$for$u20$core__ops__range__Range$LT$A$GT$$GT$4next17hb11689ebf8971395E"(i32 %v3_5661, i32 %v4_5669, i32 %v6_5669, i32 %v8_5669, i32 %v10_5669, i32 %a6, i32 ptrtoint (i32* @0 to i32), i32 ptrtoint (i32* @0 to i32), i64 ptrtoint (i32* @0 to i64), i32 ptrtoint (i32* @0 to i32), i32 ptrtoint (i32* @0 to i32), i32 ptrtoint (i32* @0 to i32), i32 ptrtoint (i32* @0 to i32), i32 ptrtoint (i32* @0 to i32), i32 ptrtoint (i32* @0 to i32), i64 ptrtoint (i32* @0 to i64))
  %v0_566e = load i64, i64* %rdx.global-to-local, align 8
  %sext20 = mul i64 %v0_566e, 4294967296
  %v4_5687 = sdiv i64 %sext20, 4294967296
  store i64 %v4_5687, i64* %rcx.global-to-local, align 8
  store i64 %v24_5669, i64* %rdx.global-to-local, align 8
  %v1_569c = icmp eq i64 %v24_5669, 0
  br i1 %v1_569c, label %dec_label_pc_5531, label %dec_label_pc_56ac

dec_label_pc_56ac:                                ; preds = %dec_label_pc_5661
  %v3_56b4 = load i16, i16* %stack_var_-138, align 2
  %v4_56b4 = zext i16 %v3_56b4 to i64
  %v6_56b4 = and i64 %v4_5687, -256
  %v7_56b4 = or i64 %v4_56b4, %v6_56b4
  %v1_56be = and i64 %v4_5687, -8
  %v2_56be = icmp eq i64 %v1_56be, 0
  store i64 %v1_56be, i64* %rdx.global-to-local, align 8
  %v1_56c9 = icmp eq i1 %v2_56be, false
  %v2_56c9 = zext i1 %v1_56c9 to i64
  %v3_56c9 = load i64, i64* %rsi.global-to-local, align 8
  %v4_56c9 = and i64 %v3_56c9, -256
  %v5_56c9 = or i64 %v4_56c9, %v2_56c9
  store i64 %v5_56c9, i64* %rsi.global-to-local, align 8
  %v4_56cd = or i64 %v4_5687, %v2_56cd
  %v1_56d0 = trunc i64 %v4_5687 to i8
  %v2_56d0 = urem i8 %v1_56d0, 8
  %v3_56d0 = icmp eq i8 %v2_56d0, 0
  %v8_56d0 = zext i8 %v2_56d0 to i64
  %v10_56d0 = and i64 %v4_56cd, -256
  %v11_56d0 = or i64 %v8_56d0, %v10_56d0
  %v2_56d8 = and i64 %v7_56b4, -256
  %v3_56d8 = or i64 %v11_56d0, %v2_56d8
  store i64 %v3_56d8, i64* %rcx.global-to-local, align 8
  %v2_56db = or i64 %v10_56d0, 1
  br i1 %v3_56d0, label %bb416, label %bb

bb:                                               ; preds = %dec_label_pc_56ac
  %v7_56de = shl i8 1, %v2_56d0
  %v13_56de = zext i8 %v7_56de to i64
  %v16_56de = or i64 %v13_56de, %v10_56d0
  br label %bb416

bb416:                                            ; preds = %dec_label_pc_56ac, %bb
  %v0_56ea = phi i64 [ %v2_56db, %dec_label_pc_56ac ], [ %v16_56de, %bb ]
  %v3_56e1 = icmp eq i1 %v1_56c9, false
  %v1_56ef = icmp eq i1 %v3_56e1, false
  br i1 %v1_56ef, label %dec_label_pc_58ff, label %dec_label_pc_56f5

dec_label_pc_56f5:                                ; preds = %bb416
  %v6_56f9 = and i64 %v3_56d8, -256
  %v4_56fd22 = and i64 %v0_56ea, %v7_56b4
  %v10_56fd = urem i64 %v4_56fd22, 256
  %sext23 = mul i64 %v0_566e, 72057594037927936
  %v4_56ff = sdiv i64 %sext23, 72057594037927936
  %v2_5704 = icmp ult i64 %v4_56ff, 8
  %v1_570f = icmp eq i1 %v2_5704, false
  %v2_570f = zext i1 %v1_570f to i64
  %v5_570f = or i64 %v4_56c9, %v2_570f
  store i64 %v5_570f, i64* %rsi.global-to-local, align 8
  %v10_5718 = and i64 %v4_56ff, -256
  %v11_5718 = or i64 %v8_56d0, %v10_5718
  store i64 %v11_5718, i64* %rdx.global-to-local, align 8
  %v3_571b = or i64 %v6_56f9, %v11_5718
  store i64 %v3_571b, i64* %rcx.global-to-local, align 8
  %v1_571d = trunc i64 %v4_56fd22 to i8
  %v7_571d = lshr i8 %v1_571d, %v2_56d0
  %v13_571d = zext i8 %v7_571d to i64
  %v10_56fd.pn = select i1 %v3_56d0, i64 %v10_56fd, i64 %v13_571d
  %v3_571f = icmp eq i1 %v1_570f, false
  %v1_5727 = icmp eq i1 %v3_571f, false
  br i1 %v1_5727, label %dec_label_pc_591d, label %dec_label_pc_572d

dec_label_pc_572d:                                ; preds = %dec_label_pc_56f5
  %v1_5723 = trunc i64 %v10_56fd.pn to i8
  %v6_5738 = and i64 %v3_571b, -256
  %v11_573c = or i64 %v6_5738, %v8_573c
  store i64 %v11_573c, i64* %rcx.global-to-local, align 8
  %v7_5743 = shl i8 %v1_5723, %v2_573c
  %v13_5743 = zext i8 %v7_5743 to i64
  %v13_5743.pn = select i1 %v3_573c, i64 %v10_56fd.pn, i64 %v13_5743
  %storemerge = or i64 %v13_5743.pn, %v10_5718
  store i64 %storemerge, i64* %rdx.global-to-local, align 8
  %v1_5747 = trunc i64 %v13_5743.pn to i8
  br i1 %v1_574b, label %dec_label_pc_593e, label %dec_label_pc_5751

dec_label_pc_5751:                                ; preds = %dec_label_pc_572d
  %v5_5756 = icmp ult i8 %v1_56d0, 8
  %v1_575a = zext i1 %v5_5756 to i64
  %v4_575a = or i64 %v6_5738, %v1_575a
  store i64 %v4_575a, i64* %rcx.global-to-local, align 8
  %v3_575d = icmp eq i1 %v5_5756, false
  %v1_5760 = icmp eq i1 %v3_575d, false
  br i1 %v1_5760, label %dec_label_pc_5767, label %dec_label_pc_595f

dec_label_pc_5767:                                ; preds = %dec_label_pc_5751
  store i64 %v4_56ff, i64* %rcx.global-to-local, align 8
  %v2_5771 = add i64 %v4_56ff, %v29_5539
  %v7_5771 = icmp ult i64 %v2_5771, %v29_5539
  %v1_5774 = zext i1 %v7_5771 to i64
  %v4_5774 = or i64 %v10_5718, %v1_5774
  store i64 %v4_5774, i64* %rdx.global-to-local, align 8
  %v3_5777 = icmp eq i1 %v7_5771, false
  %v1_577f = icmp eq i1 %v3_5777, false
  br i1 %v1_577f, label %dec_label_pc_597e, label %dec_label_pc_5785

dec_label_pc_5785:                                ; preds = %dec_label_pc_5767
  %v1_578a = urem i64 %v2_5771, 8
  %v2_57ab = sdiv i64 %sext23, 9007199254740992
  %v2_57ba = add i64 %v2_57ab, %v2_57af
  store i64 %v2_57ba, i64* %rdx.global-to-local, align 8
  store i64 %v2_57ba, i64* %rcx.global-to-local, align 8
  %v7_57c9 = or i64 %v13_5743.pn, %v4_56c9
  store i64 %v7_57c9, i64* %rsi.global-to-local, align 8
  %v5_57d3 = or i64 %v1_578a, %v2_57ba
  %v6_57d3 = inttoptr i64 %v5_57d3 to i8*
  %v7_57d3 = load i8, i8* %v6_57d3, align 1
  %v8_57d3 = or i8 %v7_57d3, %v1_5747
  %v14_57d3 = zext i8 %v8_57d3 to i64
  %v17_57d3 = or i64 %v14_57d3, %v4_56c9
  store i64 %v17_57d3, i64* %rsi.global-to-local, align 8
  store i8 %v8_57d3, i8* %v6_57d3, align 1
  %v5_5669.pre = load i64, i64* %rdx.global-to-local, align 8
  br label %dec_label_pc_5661

dec_label_pc_58a2.preheader:                      ; preds = %dec_label_pc_545f, %dec_label_pc_58ff, %dec_label_pc_591d, %dec_label_pc_593e, %dec_label_pc_595f, %dec_label_pc_597e
  %stack_var_-560.0 = phi i64 [ %tmp386, %dec_label_pc_545f ], [ %stack_var_-552.1.ph424, %dec_label_pc_58ff ], [ %stack_var_-552.1.ph424, %dec_label_pc_591d ], [ %stack_var_-552.1.ph424, %dec_label_pc_593e ], [ %stack_var_-552.1.ph424, %dec_label_pc_597e ], [ %stack_var_-552.1.ph424, %dec_label_pc_595f ]
  %stack_var_-552.0 = phi i64 [ %tmp387, %dec_label_pc_545f ], [ %stack_var_-552.1.ph424, %dec_label_pc_58ff ], [ %stack_var_-552.1.ph424, %dec_label_pc_591d ], [ %stack_var_-552.1.ph424, %dec_label_pc_593e ], [ %stack_var_-552.1.ph424, %dec_label_pc_597e ], [ %stack_var_-552.1.ph424, %dec_label_pc_595f ]
  store i64 %stack_var_-552.0, i64* %rcx.global-to-local, align 8
  %v12_58b240 = icmp eq i64 %stack_var_-560.0, %stack_var_-552.0
  br i1 %v12_58b240, label %dec_label_pc_58dd, label %dec_label_pc_58bc.preheader

dec_label_pc_58bc.preheader:                      ; preds = %dec_label_pc_58a2.preheader, %dec_label_pc_58a2.preheader.thread
  %stack_var_-552.1.ph423.ph = phi i64 [ %v1_543c, %dec_label_pc_58a2.preheader.thread ], [ %stack_var_-552.0, %dec_label_pc_58a2.preheader ]
  %v0_58b542.ph = phi i64 [ %v2_540d, %dec_label_pc_58a2.preheader.thread ], [ %stack_var_-560.0, %dec_label_pc_58a2.preheader ]
  br label %dec_label_pc_58bc

dec_label_pc_58bc:                                ; preds = %dec_label_pc_58bc.preheader, %dec_label_pc_58bc
  %v0_58b542 = phi i64 [ %v1_58cc, %dec_label_pc_58bc ], [ %v0_58b542.ph, %dec_label_pc_58bc.preheader ]
  %v3_58bc = load i64, i64* %stack_var_-240, align 8
  store i64 %v0_58b542, i64* %rcx.global-to-local, align 8
  %v2_58c9 = inttoptr i64 %v0_58b542 to i64*
  store i64 %v3_58bc, i64* %v2_58c9, align 8
  %v0_58cc = load i64, i64* %rcx.global-to-local, align 8
  %v1_58cc = add i64 %v0_58cc, 8
  store i64 %stack_var_-552.1.ph423.ph, i64* %rcx.global-to-local, align 8
  %v12_58b2 = icmp eq i64 %v1_58cc, %stack_var_-552.1.ph423.ph
  br i1 %v12_58b2, label %dec_label_pc_58dd, label %dec_label_pc_58bc

dec_label_pc_58dd:                                ; preds = %dec_label_pc_58bc, %dec_label_pc_58a2.preheader
  %stack_var_-552.1.ph424 = phi i64 [ %stack_var_-560.0, %dec_label_pc_58a2.preheader ], [ %stack_var_-552.1.ph423.ph, %dec_label_pc_58bc ]
  %v0_58e5 = call i64 @"_ZN65_$LT$alloc__string__String$u20$as$u20$core__ops__deref__Deref$GT$5deref17hb0a775d31e825c41E"()
  %v0_58ea = load i64, i64* %rdx.global-to-local, align 8
  store i64 %v0_58ea, i64* %rsi.global-to-local, align 8
  %v0_54ba = call i64 @"_ZN4core3str21_$LT$impl$u20$str$GT$5chars17h4cbf0c6d5a9808b8E"()
  %v2_54ce = ptrtoint i64* %stack_var_-208 to i64
  store i64 %v0_54ba, i64* %rsi.global-to-local, align 8
  %v0_54e3 = call i64 @_ZN4core4iter6traits8iterator8Iterator9enumerate17hed4798b90ceeb2caE()
  store i64 %v2_54ce, i64* %rsi.global-to-local, align 8
  %v0_54fa = call i64 @"_ZN63_$LT$I$u20$as$u20$core__iter__traits__collect__IntoIterator$GT$9into_iter17h31bd0ad3aca401abE"()
  %v3_5501 = load i64, i64* %stack_var_-232, align 8
  store i64 %v3_5501, i64* %stack_var_-184, align 8
  %v2_5531 = ptrtoint i64* %stack_var_-184 to i64
  %v3_5531 = trunc i64 %v2_5531 to i32
  %v2_55f1 = ptrtoint i16* %stack_var_-138 to i64
  %v2_5661 = ptrtoint i64* %stack_var_-120 to i64
  %v3_5661 = trunc i64 %v2_5661 to i32
  %sext21 = mul i64 %v2_5661, 4294967296
  %v2_56cd = sdiv i64 %sext21, 4294967296
  %v2_57af = ptrtoint i128* %stack_var_-304 to i64
  %v5_5539.pre = load i64, i64* %rdx.global-to-local, align 8
  %v7_5539.pre = load i64, i64* %rcx.global-to-local, align 8
  br label %dec_label_pc_5531

dec_label_pc_58ff:                                ; preds = %bb416
  store i64 ptrtoint (i64* @off_238E08 to i64), i64* %rdx.global-to-local, align 8
  store i64 35, i64* %rsi.global-to-local, align 8
  call void @_ZN4core9panicking5panic17h104b3bcaeb5f1ff0E()
  br label %dec_label_pc_58a2.preheader

dec_label_pc_591d:                                ; preds = %dec_label_pc_56f5
  store i64 ptrtoint (i64* @off_238E20 to i64), i64* %rdx.global-to-local, align 8
  store i64 36, i64* %rsi.global-to-local, align 8
  call void @_ZN4core9panicking5panic17h104b3bcaeb5f1ff0E()
  br label %dec_label_pc_58a2.preheader

dec_label_pc_593e:                                ; preds = %dec_label_pc_572d
  store i64 ptrtoint (i64* @off_238E38 to i64), i64* %rdx.global-to-local, align 8
  store i64 35, i64* %rsi.global-to-local, align 8
  call void @_ZN4core9panicking5panic17h104b3bcaeb5f1ff0E()
  br label %dec_label_pc_58a2.preheader

dec_label_pc_595f:                                ; preds = %dec_label_pc_5751
  store i64 8, i64* %rdx.global-to-local, align 8
  store i64 %v4_56ff, i64* %rsi.global-to-local, align 8
  call void @_ZN4core9panicking18panic_bounds_check17ha320684dc0fd21e4E()
  br label %dec_label_pc_58a2.preheader

dec_label_pc_597e:                                ; preds = %dec_label_pc_5767
  store i64 ptrtoint (i64* @off_238E68 to i64), i64* %rdx.global-to-local, align 8
  store i64 28, i64* %rsi.global-to-local, align 8
  call void @_ZN4core9panicking5panic17h104b3bcaeb5f1ff0E()
  br label %dec_label_pc_58a2.preheader
}

declare i64 @"_ZN4core6result19Result$LT$T$C$E$GT$6expect17hfa3ac7a45b0a87edE"(i32, i32, i32, i32, i32, i32, i32, i32, i64, i8, i32, i32, i32, i32, i32, i64) local_unnamed_addr

declare i64 @_ZN4core3fmt9Arguments6new_v117habe1453c04c6104cE() local_unnamed_addr

declare i64 @"_ZN47_$LT$str$u20$as$u20$alloc__string__ToString$GT$9to_string17h5a0200081bca5a96E"() local_unnamed_addr

declare i64 @_ZN4core3ptr18real_drop_in_place17h8846cd2964247bd9E() local_unnamed_addr

declare i64 @_ZN4core3ptr18real_drop_in_place17h91bf1bc63242b658E() local_unnamed_addr

declare i64 @_ZN5alloc6string6String3len17hb4ef81855ae3e8c9E() local_unnamed_addr

declare i64 @_ZN5alloc6string6String3new17h980c23501ad67776E() local_unnamed_addr

declare i64 @"_ZN65_$LT$alloc__string__String$u20$as$u20$core__ops__deref__Deref$GT$5deref17hb0a775d31e825c41E"() local_unnamed_addr

declare i64 @"_ZN4core4iter5range101_$LT$impl$u20$core__iter__traits__iterator__Iterator$u20$for$u20$core__ops__range__Range$LT$A$GT$$GT$4next17hb11689ebf8971395E"(i32, i32, i32, i32, i32, i32, i32, i32, i64, i32, i32, i32, i32, i32, i32, i64) local_unnamed_addr

declare i64 @"_ZN63_$LT$I$u20$as$u20$core__iter__traits__collect__IntoIterator$GT$9into_iter17hd72a1b6c997a55e9E"() local_unnamed_addr

declare i64 @"_ZN4core4char7methods22_$LT$impl$u20$char$GT$11encode_utf817h737276376f8d9a93E"() local_unnamed_addr

declare i64 @"_ZN4core3str21_$LT$impl$u20$str$GT$5chars17h4cbf0c6d5a9808b8E"() local_unnamed_addr

declare i64 @_ZN4core4iter6traits8iterator8Iterator9enumerate17hed4798b90ceeb2caE() local_unnamed_addr

declare i64 @"_ZN63_$LT$I$u20$as$u20$core__iter__traits__collect__IntoIterator$GT$9into_iter17h31bd0ad3aca401abE"() local_unnamed_addr

declare i64 @"_ZN99_$LT$core__iter__adapters__Enumerate$LT$I$GT$$u20$as$u20$core__iter__traits__iterator__Iterator$GT$4next17h479490e5b884f92cE"(i32, i32, i32, i32, i32, i32, i32, i32, i32, i32, i32, i32, i32, i32, i32, i32, i32, i32, i32, i32, i64) local_unnamed_addr

declare void @_ZN3std2io5stdio5stdin17had800504caeed016E() local_unnamed_addr

declare void @_ZN3std2io5stdio5Stdin9read_line17hc21f46249bf233abE() local_unnamed_addr

declare void @_ZN3std2io5stdio6_print17ha21135370f774d93E() local_unnamed_addr

declare void @_ZN3std7process4exit17h3da318d796a7fee3E() local_unnamed_addr

declare void @_ZN4core9panicking5panic17h104b3bcaeb5f1ff0E() local_unnamed_addr

declare void @_ZN4core9panicking18panic_bounds_check17ha320684dc0fd21e4E() local_unnamed_addr

declare void @"_ZN4core3str21_$LT$impl$u20$str$GT$4trim17h2ccbb6090d1941e7E"() local_unnamed_addr

declare i128 @__asm_movups(i128) local_unnamed_addr

declare i64 @__asm_movaps(i128) local_unnamed_addr

declare i128 @__decompiler_undefined_function_0() local_unnamed_addr

declare i64 @__decompiler_undefined_function_2() local_unnamed_addr
